target datalayout = "e-m:e-p270:32:32-p271:32:32-p272:64:64-i64:64-i128:128-f80:128-n8:16:32:64-S128"
target triple = "x86_64-unknown-linux-gnu"

%"class.datalog::rule_manager" = type { ptr, ptr, %"class.datalog::rule_counter", %class.used_vars, %class.uint_set, %class.expr_free_vars, %class.ref_vector, %class.obj_ref, %class.ref_vector.11, %class.svector.14, %class.hnf, %class.qe_lite, %class.label_rewriter, %"struct.datalog::uninterpreted_function_finder_proc", %"struct.datalog::quantifier_finder_proc", [5 x i8], %class.expr_sparse_mark, %"struct.datalog::fd_finder_proc" }
%"class.datalog::rule_counter" = type { %class.var_counter }
%class.var_counter = type { %class.counter, %class.ast_fast_mark, %class.expr_free_vars, %class.ptr_vector.2, %class.svector }
%class.counter = type { %class.u_map }
%class.u_map = type { %class.map }
%class.map = type { %class.table2map }
%class.table2map = type { %class.core_hashtable }
%class.core_hashtable = type <{ ptr, i32, i32, i32, [4 x i8] }>
%class.ast_fast_mark = type { %class.ptr_buffer }
%class.ptr_buffer = type { %class.buffer }
%class.buffer = type { ptr, i32, i32, [16 x %"union.std::aligned_storage<8, 8>::type"] }
%"union.std::aligned_storage<8, 8>::type" = type { [8 x i8] }
%class.ptr_vector.2 = type { %class.vector.3 }
%class.vector.3 = type { ptr }
%class.svector = type { %class.vector.4 }
%class.vector.4 = type { ptr }
%class.used_vars = type { %class.ptr_vector, %class.hashtable, %class.svector.7, i32, i32 }
%class.ptr_vector = type { %class.vector }
%class.vector = type { ptr }
%class.hashtable = type { %class.core_hashtable.base.6, [4 x i8] }
%class.core_hashtable.base.6 = type <{ ptr, i32, i32, i32 }>
%class.svector.7 = type { %class.vector.8 }
%class.vector.8 = type { ptr }
%class.uint_set = type { %class.svector }
%class.expr_free_vars = type { %class.expr_sparse_mark, %class.ptr_vector, %class.ptr_vector.2 }
%class.ref_vector = type { %class.ref_vector_core }
%class.ref_vector_core = type { %class.ref_manager_wrapper, %class.ptr_vector.9 }
%class.ref_manager_wrapper = type { ptr }
%class.ptr_vector.9 = type { %class.vector.10 }
%class.vector.10 = type { ptr }
%class.obj_ref = type { ptr, ptr }
%class.ref_vector.11 = type { %class.ref_vector_core.12 }
%class.ref_vector_core.12 = type { %class.ref_manager_wrapper.13, %class.ptr_vector.2 }
%class.ref_manager_wrapper.13 = type { ptr }
%class.svector.14 = type { %class.vector.15 }
%class.vector.15 = type { ptr }
%class.hnf = type { ptr }
%class.qe_lite = type { ptr }
%class.label_rewriter = type { i32, %class.rewriter_tpl }
%class.rewriter_tpl = type { %class.rewriter_core, ptr, i32, %class.ptr_vector.2, %class.var_shifter, %class.inv_var_shifter, %class.obj_ref.22, %class.obj_ref, %class.obj_ref, %class.svector }
%class.rewriter_core = type { ptr, ptr, i8, i8, %class.ptr_vector.16, ptr, %class.svector.18, %class.ref_vector.11, %class.ptr_vector.16, ptr, %class.ref_vector, %class.obj_hashtable, ptr, i32, %class.svector.20 }
%class.svector.18 = type { %class.vector.19 }
%class.vector.19 = type { ptr }
%class.ptr_vector.16 = type { %class.vector.17 }
%class.vector.17 = type { ptr }
%class.obj_hashtable = type { %class.core_hashtable.base.1, [4 x i8] }
%class.core_hashtable.base.1 = type <{ ptr, i32, i32, i32 }>
%class.svector.20 = type { %class.vector.21 }
%class.vector.21 = type { ptr }
%class.var_shifter = type <{ %class.var_shifter_core, i32, i32, i32, [4 x i8] }>
%class.var_shifter_core = type { %class.rewriter_core }
%class.inv_var_shifter = type <{ %class.var_shifter_core, i32, [4 x i8] }>
%class.obj_ref.22 = type { ptr, ptr }
%"struct.datalog::uninterpreted_function_finder_proc" = type { ptr, %"class.datatype::util", %"class.datalog::dl_decl_util", i8, ptr }
%"class.datatype::util" = type { ptr, i32, ptr, %class.obj_map, %class.obj_map.27, %class.obj_map.32, %class.obj_map.37, %class.obj_map.37, %class.obj_map.37, %class.obj_map.42, %class.obj_map.42, %class.obj_map.42, %class.ref_vector.47, %class.ref_vector_core.52, %class.ptr_vector.55, i32, %class.ptr_vector }
%class.obj_map = type { %class.core_hashtable.23 }
%class.core_hashtable.23 = type <{ ptr, i32, i32, i32, [4 x i8] }>
%class.obj_map.27 = type { %class.core_hashtable.28 }
%class.core_hashtable.28 = type <{ ptr, i32, i32, i32, [4 x i8] }>
%class.obj_map.32 = type { %class.core_hashtable.33 }
%class.core_hashtable.33 = type <{ ptr, i32, i32, i32, [4 x i8] }>
%class.obj_map.37 = type { %class.core_hashtable.38 }
%class.core_hashtable.38 = type <{ ptr, i32, i32, i32, [4 x i8] }>
%class.obj_map.42 = type { %class.core_hashtable.43 }
%class.core_hashtable.43 = type <{ ptr, i32, i32, i32, [4 x i8] }>
%class.ref_vector.47 = type { %class.ref_vector_core.48 }
%class.ref_vector_core.48 = type { %class.ref_manager_wrapper.49, %class.ptr_vector.50 }
%class.ref_manager_wrapper.49 = type { ptr }
%class.ptr_vector.50 = type { %class.vector.51 }
%class.vector.51 = type { ptr }
%class.ref_vector_core.52 = type { %class.ptr_vector.53 }
%class.ptr_vector.53 = type { %class.vector.54 }
%class.vector.54 = type { ptr }
%class.ptr_vector.55 = type { %class.vector.56 }
%class.vector.56 = type { ptr }
%"class.datalog::dl_decl_util" = type <{ ptr, %class.scoped_ptr, %class.scoped_ptr.57, i32, [4 x i8] }>
%class.scoped_ptr = type { ptr }
%class.scoped_ptr.57 = type { ptr }
%"struct.datalog::quantifier_finder_proc" = type { i8, i8, i8 }
%class.expr_sparse_mark = type { %class.obj_hashtable }
%"struct.datalog::fd_finder_proc" = type <{ ptr, %class.bv_util, i8, [7 x i8] }>
%class.bv_util = type { %class.bv_recognizers, ptr, ptr }
%class.bv_recognizers = type { i32 }

; Function Attrs: mustprogress nounwind uwtable
define linkonce_odr hidden void @_ZN6vectorIjLb0EjE5resetEv(ptr noundef nonnull align 8 dereferenceable(8) %this) #5 comdat align 2 {
entry:
  %this.addr = alloca ptr, align 8
  store ptr %this, ptr %this.addr, align 8
  %this1 = load ptr, ptr %this.addr, align 8
  %m_data = getelementptr inbounds %class.vector.4, ptr %this1, i32 0, i32 0
  %0 = load ptr, ptr %m_data, align 8
  %tobool = icmp ne ptr %0, null
  br i1 %tobool, label %if.then, label %if.end

if.then:                                          ; preds = %entry
  %m_data2 = getelementptr inbounds %class.vector.4, ptr %this1, i32 0, i32 0
  %1 = load ptr, ptr %m_data2, align 8
  %arrayidx = getelementptr inbounds i32, ptr %1, i64 -1
  store i32 0, ptr %arrayidx, align 4
  br label %if.end

if.end:                                           ; preds = %if.then, %entry
  ret void
}

; Function Attrs: mustprogress uwtable
define linkonce_odr hidden void @_ZN8uint_set5resetEv(ptr noundef nonnull align 8 dereferenceable(8) %this) #4 comdat align 2 {
entry:
  %this.addr = alloca ptr, align 8
  store ptr %this, ptr %this.addr, align 8
  %this1 = load ptr, ptr %this.addr, align 8
  call void @_ZN6vectorIjLb0EjE5resetEv(ptr noundef nonnull align 8 dereferenceable(8) %this1)
  ret void
}

; Function Attrs: mustprogress uwtable
define hidden void @_ZN7datalog12rule_manager15accumulate_varsEP4expr(ptr noundef nonnull align 8 dereferenceable(1368) %this, ptr noundef %e) #4 align 2 {
entry:
  %this.addr = alloca ptr, align 8
  %e.addr = alloca ptr, align 8
  store ptr %this, ptr %this.addr, align 8
  store ptr %e, ptr %e.addr, align 8
  %this1 = load ptr, ptr %this.addr, align 8
  %m_free_vars = getelementptr inbounds %"class.datalog::rule_manager", ptr %this1, i32 0, i32 5
  %0 = load ptr, ptr %e.addr, align 8
  call void @_ZN14expr_free_vars10accumulateEP4expr(ptr noundef nonnull align 8 dereferenceable(40) %m_free_vars, ptr noundef %0)
  ret void
}

; Function Attrs: mustprogress uwtable
define hidden void @_ZN7datalog12rule_manager18reset_collect_varsEv(ptr noundef nonnull align 8 dereferenceable(1368) %this) #4 align 2 {
entry:
  %this.addr = alloca ptr, align 8
  store ptr %this, ptr %this.addr, align 8
  %this1 = load ptr, ptr %this.addr, align 8
  %m_var_idx = getelementptr inbounds %"class.datalog::rule_manager", ptr %this1, i32 0, i32 4
  call void @_ZN8uint_set5resetEv(ptr noundef nonnull align 8 dereferenceable(8) %m_var_idx)
  %m_free_vars = getelementptr inbounds %"class.datalog::rule_manager", ptr %this1, i32 0, i32 5
  call void @_ZN14expr_free_vars5resetEv(ptr noundef nonnull align 8 dereferenceable(40) %m_free_vars)
  ret void
}

; Function Attrs: mustprogress uwtable
define hidden noundef nonnull align 8 dereferenceable(8) ptr @_ZN7datalog12rule_manager12collect_varsEP4exprS2_(ptr noundef nonnull align 8 dereferenceable(1368) %this, ptr noundef %e1, ptr noundef %e2) #4 align 2 {
entry:
  %this.addr = alloca ptr, align 8
  %e1.addr = alloca ptr, align 8
  %e2.addr = alloca ptr, align 8
  store ptr %this, ptr %this.addr, align 8
  store ptr %e1, ptr %e1.addr, align 8
  store ptr %e2, ptr %e2.addr, align 8
  %this1 = load ptr, ptr %this.addr, align 8
  call void @_ZN7datalog12rule_manager18reset_collect_varsEv(ptr noundef nonnull align 8 dereferenceable(1368) %this1)
  %0 = load ptr, ptr %e1.addr, align 8
  %tobool = icmp ne ptr %0, null
  br i1 %tobool, label %if.then, label %if.end

if.then:                                          ; preds = %entry
  %1 = load ptr, ptr %e1.addr, align 8
  call void @_ZN7datalog12rule_manager15accumulate_varsEP4expr(ptr noundef nonnull align 8 dereferenceable(1368) %this1, ptr noundef %1)
  br label %if.end

if.end:                                           ; preds = %if.then, %entry
  %2 = load ptr, ptr %e2.addr, align 8
  %tobool2 = icmp ne ptr %2, null
  br i1 %tobool2, label %if.then3, label %if.end4

if.then3:                                         ; preds = %if.end
  %3 = load ptr, ptr %e2.addr, align 8
  call void @_ZN7datalog12rule_manager15accumulate_varsEP4expr(ptr noundef nonnull align 8 dereferenceable(1368) %this1, ptr noundef %3)
  br label %if.end4

if.end4:                                          ; preds = %if.then3, %if.end
  %call = call noundef nonnull align 8 dereferenceable(8) ptr @_ZN7datalog12rule_manager21finalize_collect_varsEv(ptr noundef nonnull align 8 dereferenceable(1368) %this1)
  ret ptr %call
}

; Function Attrs: mustprogress uwtable
define hidden noundef nonnull align 8 dereferenceable(8) ptr @_ZN7datalog12rule_manager12collect_varsEP4expr(ptr noundef nonnull align 8 dereferenceable(1368) %this, ptr noundef %e) #4 align 2 {
entry:
  %this.addr = alloca ptr, align 8
  %e.addr = alloca ptr, align 8
  store ptr %this, ptr %this.addr, align 8
  store ptr %e, ptr %e.addr, align 8
  %this1 = load ptr, ptr %this.addr, align 8
  %0 = load ptr, ptr %e.addr, align 8
  %call = call noundef nonnull align 8 dereferenceable(8) ptr @_ZN7datalog12rule_manager12collect_varsEP4exprS2_(ptr noundef nonnull align 8 dereferenceable(1368) %this1, ptr noundef %0, ptr noundef null)
  ret ptr %call
}