; Function Attrs: mustprogress uwtable
define hidden noundef nonnull align 8 dereferenceable(8) ptr @_ZN7datalog12rule_manager12collect_varsEP4expr(ptr noundef nonnull align 8 dereferenceable(1368) %this, ptr noundef %e) local_unnamed_addr #3 align 2 {
entry:
  %m_var_idx.i.i = getelementptr inbounds i8, ptr %this, i64 288
  %0 = load ptr, ptr %m_var_idx.i.i, align 8
  %tobool.not.i.i.i.i = icmp eq ptr %0, null
  br i1 %tobool.not.i.i.i.i, label %_ZN7datalog12rule_manager18reset_collect_varsEv.exit.i, label %if.then.i.i.i.i

if.then.i.i.i.i:                                  ; preds = %entry
  %arrayidx.i.i.i.i = getelementptr inbounds i8, ptr %0, i64 -4
  store i32 0, ptr %arrayidx.i.i.i.i, align 4
  br label %_ZN7datalog12rule_manager18reset_collect_varsEv.exit.i

_ZN7datalog12rule_manager18reset_collect_varsEv.exit.i: ; preds = %if.then.i.i.i.i, %entry
  %m_free_vars.i.i = getelementptr inbounds i8, ptr %this, i64 296
  tail call void @_ZN14expr_free_vars5resetEv(ptr noundef nonnull align 8 dereferenceable(40) %m_free_vars.i.i)
  %tobool.not.i = icmp eq ptr %e, null
  br i1 %tobool.not.i, label %_ZN7datalog12rule_manager12collect_varsEP4exprS2_.exit, label %if.then.i

if.then.i:                                        ; preds = %_ZN7datalog12rule_manager18reset_collect_varsEv.exit.i
  tail call void @_ZN14expr_free_vars10accumulateEP4expr(ptr noundef nonnull align 8 dereferenceable(40) %m_free_vars.i.i, ptr noundef nonnull %e)
  br label %_ZN7datalog12rule_manager12collect_varsEP4exprS2_.exit

_ZN7datalog12rule_manager12collect_varsEP4exprS2_.exit: ; preds = %_ZN7datalog12rule_manager18reset_collect_varsEv.exit.i, %if.then.i
  %call.i = tail call noundef nonnull align 8 dereferenceable(8) ptr @_ZN7datalog12rule_manager21finalize_collect_varsEv(ptr noundef nonnull align 8 dereferenceable(1368) %this)
  ret ptr %call.i
}